; Function Attrs: mustprogress nounwind uwtable
define dso_local noundef ptr @_ZNK4llvm14DependenceInfo13getUpperBoundEPNS0_9BoundInfoE(ptr nocapture noundef nonnull readonly align 8 dereferenceable(44) %0, ptr nocapture noundef readonly %1) local_unnamed_addr #0 align 2 {
  %3 = alloca %"class.llvm::SmallVector.289", align 8
  %4 = alloca [2 x ptr], align 8
  %5 = getelementptr inbounds i8, ptr %1, i64 152
  %6 = getelementptr inbounds i8, ptr %1, i64 280
  %7 = load i8, ptr %6, align 8
  %8 = zext i8 %7 to i64
  %9 = getelementptr inbounds [8 x ptr], ptr %5, i64 0, i64 %8
  %10 = load ptr, ptr %9, align 8
  %11 = getelementptr inbounds nuw i8, ptr %0, i64 40
  %.not20 = icmp eq ptr %10, null
  %12 = load i32, ptr %11, align 8
  %.not1721 = icmp ult i32 %12, 2
  %or.cond22 = select i1 %.not20, i1 true, i1 %.not1721
  br i1 %or.cond22, label %.critedge, label %.lr.ph

.lr.ph:                                           ; preds = %2
  %13 = getelementptr inbounds nuw i8, ptr %0, i64 8
  %14 = getelementptr inbounds i8, ptr %4, i64 8
  %15 = getelementptr inbounds i8, ptr %3, i64 16
  %16 = getelementptr inbounds i8, ptr %4, i64 16
  br label %17

17:                                               ; preds = %.lr.ph, %33
  %.024 = phi i32 [ 2, %.lr.ph ], [ %34, %33 ]
  %.01523 = phi ptr [ %10, %.lr.ph ], [ %28, %33 ]
  %18 = zext i32 %.024 to i64
  %19 = getelementptr inbounds %"struct.llvm::DependenceInfo::BoundInfo", ptr %1, i64 %18
  %20 = getelementptr inbounds nuw i8, ptr %19, i64 8
  %21 = getelementptr inbounds nuw i8, ptr %19, i64 136
  %22 = load i8, ptr %21, align 8
  %23 = zext i8 %22 to i64
  %24 = getelementptr inbounds [8 x ptr], ptr %20, i64 0, i64 %23
  %25 = load ptr, ptr %24, align 8
  %.not18 = icmp eq ptr %25, null
  br i1 %.not18, label %.critedge, label %26

26:                                               ; preds = %17
  %27 = load ptr, ptr %13, align 8
  call void @llvm.lifetime.start.p0(i64 32, ptr nonnull %3)
  call void @llvm.lifetime.start.p0(i64 16, ptr nonnull %4)
  store ptr %.01523, ptr %4, align 8
  store ptr %25, ptr %14, align 8
  call void @_ZN4llvm15SmallVectorBaseIjEC2EPvm(ptr noundef nonnull align 8 dereferenceable(16) %3, ptr noundef nonnull %15, i64 noundef 2) #23
  call void @_ZN4llvm15SmallVectorImplIPKNS_4SCEVEE6appendIPKS3_vEEvT_S8_(ptr noundef nonnull align 8 dereferenceable(16) %3, ptr noundef nonnull %4, ptr noundef nonnull %16)
  %28 = call noundef ptr @_ZN4llvm15ScalarEvolution10getAddExprERNS_15SmallVectorImplIPKNS_4SCEVEEENS2_11NoWrapFlagsEj(ptr noundef nonnull align 8 dereferenceable(1392) %27, ptr noundef nonnull align 8 dereferenceable(16) %3, i32 noundef 0, i32 noundef 0) #23
  %29 = call noundef i64 @_ZNK4llvm15SmallVectorBaseIjE4sizeEv(ptr noundef nonnull align 8 dereferenceable(16) %3) #23
  %30 = load ptr, ptr %3, align 8
  %31 = icmp eq ptr %30, %15
  br i1 %31, label %33, label %32

32:                                               ; preds = %26
  call void @free(ptr noundef %30) #23
  br label %33

33:                                               ; preds = %32, %26
  call void @llvm.lifetime.end.p0(i64 32, ptr nonnull %3)
  call void @llvm.lifetime.end.p0(i64 16, ptr nonnull %4)
  %.pre = load i32, ptr %11, align 8
  %34 = add i32 %.024, 1
  %.not = icmp eq ptr %28, null
  %.not17 = icmp ugt i32 %34, %.pre
  %or.cond = select i1 %.not, i1 true, i1 %.not17
  br i1 %or.cond, label %.critedge, label %17, !llvm.loop !173

.critedge:                                        ; preds = %17, %33, %2
  %.015.lcssa = phi ptr [ %10, %2 ], [ null, %17 ], [ %28, %33 ]
  ret ptr %.015.lcssa
}